target datalayout = "e-m:e-p270:32:32-p271:32:32-p272:64:64-i64:64-i128:128-f80:128-n8:16:32:64-S128"
target triple = "x86_64-pc-linux-gnu"

%struct.rb_data_type_struct = type { ptr, %struct.anon.14, ptr, ptr, i64 }
%struct.anon.14 = type { ptr, ptr, ptr, ptr, [1 x ptr] }
%struct.rb_execution_context_struct = type { ptr, i64, ptr, ptr, i32, i32, ptr, ptr, ptr, i64, i64, i64, ptr, i64, ptr, i64, i64, i8, i8, i64, %struct.anon.7 }
%struct.anon.7 = type { ptr, ptr, i64, [1 x %struct.__jmp_buf_tag] }
%struct.__jmp_buf_tag = type { [8 x i64], i32, %struct.__sigset_t }
%struct.__sigset_t = type { [16 x i64] }
%struct.METHOD = type { i64, i64, i64, i64, ptr }
%struct.rb_method_entry_struct = type { i64, i64, ptr, i64, i64 }

@rb_cProc = dso_local global i64 0, align 8
@method_data_type = internal constant %struct.rb_data_type_struct { ptr @.str.53, %struct.anon.14 { ptr @bm_mark_and_move, ptr inttoptr (i64 -1 to ptr), ptr null, ptr @bm_mark_and_move, [1 x ptr] zeroinitializer }, ptr null, ptr null, i64 35 }, align 8
@rb_eTypeError = external global i64, align 8
@.str.16 = private unnamed_addr constant [38 x i8] c"can't call unbound method; bind first\00", align 1
@ruby_current_ec = external thread_local global ptr, align 8
@.str.75 = private unnamed_addr constant [44 x i8] c"method_callable_method_entry: not callable.\00", align 1

; Function Attrs: inlinehint nounwind sspstrong uwtable
define internal void @vm_block_handler_verify(i64 noundef %0) #3 {
  %2 = alloca i64, align 8
  store i64 %0, ptr %2, align 8, !tbaa !7
  ret void
}

; Function Attrs: inlinehint nounwind sspstrong willreturn memory(none) uwtable
define internal zeroext i1 @RB_NIL_P(i64 noundef %0) #12 {
  %2 = alloca i64, align 8
  store i64 %0, ptr %2, align 8, !tbaa !7
  %3 = load i64, ptr %2, align 8, !tbaa !7
  %4 = icmp eq i64 %3, 4
  ret i1 %4
}

; Function Attrs: nounwind sspstrong uwtable
define internal ptr @method_callable_method_entry(ptr noundef %0) #0 {
  %2 = alloca ptr, align 8
  store ptr %0, ptr %2, align 8, !tbaa !95
  %3 = load ptr, ptr %2, align 8, !tbaa !95
  %4 = getelementptr inbounds nuw %struct.METHOD, ptr %3, i32 0, i32 4
  %5 = load ptr, ptr %4, align 8, !tbaa !104
  %6 = getelementptr inbounds nuw %struct.rb_method_entry_struct, ptr %5, i32 0, i32 1
  %7 = load i64, ptr %6, align 8, !tbaa !127
  %8 = icmp eq i64 %7, 0
  br i1 %8, label %9, label %10

9:                                                ; preds = %1
  call void (ptr, ...) @rb_bug(ptr noundef @.str.75) #30
  unreachable

10:                                               ; preds = %1
  %11 = load ptr, ptr %2, align 8, !tbaa !95
  %12 = getelementptr inbounds nuw %struct.METHOD, ptr %11, i32 0, i32 4
  %13 = load ptr, ptr %12, align 8, !tbaa !104
  ret ptr %13
}

; Function Attrs: inlinehint nounwind sspstrong uwtable
define internal void @vm_passed_block_handler_set(ptr noundef %0, i64 noundef %1) #3 {
  %3 = alloca ptr, align 8
  %4 = alloca i64, align 8
  store ptr %0, ptr %3, align 8, !tbaa !19
  store i64 %1, ptr %4, align 8, !tbaa !7
  %5 = load i64, ptr %4, align 8, !tbaa !7
  call void @vm_block_handler_verify(i64 noundef %5)
  %6 = load i64, ptr %4, align 8, !tbaa !7
  %7 = load ptr, ptr %3, align 8, !tbaa !19
  %8 = getelementptr inbounds nuw %struct.rb_execution_context_struct, ptr %7, i32 0, i32 16
  store i64 %6, ptr %8, align 8, !tbaa !149
  ret void
}

; Function Attrs: nounwind sspstrong uwtable
define internal i64 @proc_to_block_handler(i64 noundef %0) #0 {
  %2 = alloca i64, align 8
  store i64 %0, ptr %2, align 8, !tbaa !7
  %3 = load i64, ptr %2, align 8, !tbaa !7
  %4 = call zeroext i1 @RB_NIL_P(i64 noundef %3) #29
  br i1 %4, label %5, label %6

5:                                                ; preds = %1
  br label %8

6:                                                ; preds = %1
  %7 = load i64, ptr %2, align 8, !tbaa !7
  br label %8

8:                                                ; preds = %6, %5
  %9 = phi i64 [ 0, %5 ], [ %7, %6 ]
  ret i64 %9
}

; Function Attrs: inlinehint nounwind sspstrong uwtable
define internal i64 @call_method_data(ptr noundef %0, ptr noundef %1, i32 noundef %2, ptr noundef %3, i64 noundef %4, i32 noundef %5) #3 {
  %7 = alloca ptr, align 8
  %8 = alloca ptr, align 8
  %9 = alloca i32, align 4
  %10 = alloca ptr, align 8
  %11 = alloca i64, align 8
  %12 = alloca i32, align 4
  store ptr %0, ptr %7, align 8, !tbaa !19
  store ptr %1, ptr %8, align 8, !tbaa !95
  store i32 %2, ptr %9, align 4, !tbaa !36
  store ptr %3, ptr %10, align 8, !tbaa !35
  store i64 %4, ptr %11, align 8, !tbaa !7
  store i32 %5, ptr %12, align 4, !tbaa !36
  %13 = load ptr, ptr %7, align 8, !tbaa !19
  %14 = load i64, ptr %11, align 8, !tbaa !7
  %15 = call i64 @proc_to_block_handler(i64 noundef %14)
  call void @vm_passed_block_handler_set(ptr noundef %13, i64 noundef %15)
  %16 = load ptr, ptr %7, align 8, !tbaa !19
  %17 = load ptr, ptr %8, align 8, !tbaa !95
  %18 = getelementptr inbounds nuw %struct.METHOD, ptr %17, i32 0, i32 0
  %19 = load i64, ptr %18, align 8, !tbaa !103
  %20 = load ptr, ptr %8, align 8, !tbaa !95
  %21 = getelementptr inbounds nuw %struct.METHOD, ptr %20, i32 0, i32 4
  %22 = load ptr, ptr %21, align 8, !tbaa !104
  %23 = getelementptr inbounds nuw %struct.rb_method_entry_struct, ptr %22, i32 0, i32 3
  %24 = load i64, ptr %23, align 8, !tbaa !105
  %25 = load i32, ptr %9, align 4, !tbaa !36
  %26 = load ptr, ptr %10, align 8, !tbaa !35
  %27 = load ptr, ptr %8, align 8, !tbaa !95
  %28 = call ptr @method_callable_method_entry(ptr noundef %27)
  %29 = load i32, ptr %12, align 4, !tbaa !36
  %30 = call i64 @rb_vm_call_kw(ptr noundef %16, i64 noundef %19, i64 noundef %24, i32 noundef %25, ptr noundef %26, ptr noundef %28, i32 noundef %29)
  ret i64 %30
}

; Function Attrs: inlinehint nounwind sspstrong willreturn memory(none) uwtable
define internal zeroext i1 @RB_UNDEF_P(i64 noundef %0) #12 {
  %2 = alloca i64, align 8
  store i64 %0, ptr %2, align 8, !tbaa !7
  %3 = load i64, ptr %2, align 8, !tbaa !7
  %4 = icmp eq i64 %3, 36
  ret i1 %4
}

; Function Attrs: inlinehint nounwind sspstrong uwtable
define internal ptr @rb_current_execution_context(i1 noundef zeroext %0) #3 {
  %2 = alloca i8, align 1
  %3 = alloca ptr, align 8
  %4 = zext i1 %0 to i8
  store i8 %4, ptr %2, align 1, !tbaa !32
  call void @llvm.lifetime.start.p0(i64 8, ptr %3) #25
  %5 = call align 8 ptr @llvm.threadlocal.address.p0(ptr align 8 @ruby_current_ec)
  %6 = load ptr, ptr %5, align 8, !tbaa !19
  store ptr %6, ptr %3, align 8, !tbaa !19
  %7 = load ptr, ptr %3, align 8, !tbaa !19
  call void @llvm.lifetime.end.p0(i64 8, ptr %3) #25
  ret ptr %7
}

; Function Attrs: nounwind sspstrong uwtable
define dso_local i64 @rb_method_call_with_block_kw(i32 noundef %0, ptr noundef %1, i64 noundef %2, i64 noundef %3, i32 noundef %4) #0 {
  %6 = alloca i32, align 4
  %7 = alloca ptr, align 8
  %8 = alloca i64, align 8
  %9 = alloca i64, align 8
  %10 = alloca i32, align 4
  %11 = alloca ptr, align 8
  %12 = alloca ptr, align 8
  store i32 %0, ptr %6, align 4, !tbaa !36
  store ptr %1, ptr %7, align 8, !tbaa !35
  store i64 %2, ptr %8, align 8, !tbaa !7
  store i64 %3, ptr %9, align 8, !tbaa !7
  store i32 %4, ptr %10, align 4, !tbaa !36
  call void @llvm.lifetime.start.p0(i64 8, ptr %11) #25
  call void @llvm.lifetime.start.p0(i64 8, ptr %12) #25
  %13 = call ptr @rb_current_execution_context(i1 noundef zeroext true)
  store ptr %13, ptr %12, align 8, !tbaa !19
  %14 = load i64, ptr %8, align 8, !tbaa !7
  %15 = call ptr @rb_check_typeddata(i64 noundef %14, ptr noundef @method_data_type)
  store ptr %15, ptr %11, align 8, !tbaa !95
  %16 = load ptr, ptr %11, align 8, !tbaa !95
  %17 = getelementptr inbounds nuw %struct.METHOD, ptr %16, i32 0, i32 0
  %18 = load i64, ptr %17, align 8, !tbaa !103
  %19 = call zeroext i1 @RB_UNDEF_P(i64 noundef %18) #29
  br i1 %19, label %20, label %22

20:                                               ; preds = %5
  %21 = load i64, ptr @rb_eTypeError, align 8, !tbaa !7
  call void (i64, ptr, ...) @rb_raise(i64 noundef %21, ptr noundef @.str.16) #27
  unreachable

22:                                               ; preds = %5
  %23 = load ptr, ptr %12, align 8, !tbaa !19
  %24 = load ptr, ptr %11, align 8, !tbaa !95
  %25 = load i32, ptr %6, align 4, !tbaa !36
  %26 = load ptr, ptr %7, align 8, !tbaa !35
  %27 = load i64, ptr %9, align 8, !tbaa !7
  %28 = load i32, ptr %10, align 4, !tbaa !36
  %29 = call i64 @call_method_data(ptr noundef %23, ptr noundef %24, i32 noundef %25, ptr noundef %26, i64 noundef %27, i32 noundef %28)
  call void @llvm.lifetime.end.p0(i64 8, ptr %12) #25
  call void @llvm.lifetime.end.p0(i64 8, ptr %11) #25
  ret i64 %29
}

; Function Attrs: nounwind sspstrong uwtable
define dso_local i64 @rb_method_call_with_block(i32 noundef %0, ptr noundef %1, i64 noundef %2, i64 noundef %3) #0 {
  %5 = alloca i32, align 4
  %6 = alloca ptr, align 8
  %7 = alloca i64, align 8
  %8 = alloca i64, align 8
  store i32 %0, ptr %5, align 4, !tbaa !36
  store ptr %1, ptr %6, align 8, !tbaa !35
  store i64 %2, ptr %7, align 8, !tbaa !7
  store i64 %3, ptr %8, align 8, !tbaa !7
  %9 = load i32, ptr %5, align 4, !tbaa !36
  %10 = load ptr, ptr %6, align 8, !tbaa !35
  %11 = load i64, ptr %7, align 8, !tbaa !7
  %12 = load i64, ptr %8, align 8, !tbaa !7
  %13 = call i64 @rb_method_call_with_block_kw(i32 noundef %9, ptr noundef %10, i64 noundef %11, i64 noundef %12, i32 noundef 0)
  ret i64 %13
}

; Function Attrs: nounwind sspstrong uwtable
define dso_local i64 @rb_block_proc() #0 {
  %1 = load i64, ptr @rb_cProc, align 8, !tbaa !7
  %2 = call i64 @proc_new(i64 noundef %1, i8 noundef signext 0)
  ret i64 %2
}

; Function Attrs: nounwind sspstrong uwtable
define dso_local i64 @rb_method_call(i32 noundef %0, ptr noundef %1, i64 noundef %2) #0 {
  %4 = alloca i32, align 4
  %5 = alloca ptr, align 8
  %6 = alloca i64, align 8
  %7 = alloca i64, align 8
  store i32 %0, ptr %4, align 4, !tbaa !36
  store ptr %1, ptr %5, align 8, !tbaa !35
  store i64 %2, ptr %6, align 8, !tbaa !7
  call void @llvm.lifetime.start.p0(i64 8, ptr %7) #25
  %8 = call i32 @rb_block_given_p()
  %9 = icmp ne i32 %8, 0
  br i1 %9, label %10, label %12

10:                                               ; preds = %3
  %11 = call i64 @rb_block_proc()
  br label %13

12:                                               ; preds = %3
  br label %13

13:                                               ; preds = %12, %10
  %14 = phi i64 [ %11, %10 ], [ 4, %12 ]
  store i64 %14, ptr %7, align 8, !tbaa !7
  %15 = load i32, ptr %4, align 4, !tbaa !36
  %16 = load ptr, ptr %5, align 8, !tbaa !35
  %17 = load i64, ptr %6, align 8, !tbaa !7
  %18 = load i64, ptr %7, align 8, !tbaa !7
  %19 = call i64 @rb_method_call_with_block(i32 noundef %15, ptr noundef %16, i64 noundef %17, i64 noundef %18)
  call void @llvm.lifetime.end.p0(i64 8, ptr %7) #25
  ret i64 %19
}