; Function Attrs: nounwind sspstrong uwtable
define dso_local i64 @rb_method_call(i32 noundef %0, ptr noundef %1, i64 noundef %2) local_unnamed_addr #0 {
  %4 = tail call i32 @rb_block_given_p() #21
  %.not = icmp eq i32 %4, 0
  br i1 %.not, label %8, label %5

5:                                                ; preds = %3
  %6 = load i64, ptr @rb_cProc, align 8, !tbaa !36
  %7 = tail call fastcc i64 @proc_new(i64 noundef %6, i8 noundef signext 0)
  br label %8

8:                                                ; preds = %3, %5
  %9 = phi i64 [ %7, %5 ], [ 4, %3 ]
  %10 = tail call align 8 ptr @llvm.threadlocal.address.p0(ptr align 8 @ruby_current_ec)
  %11 = load ptr, ptr %10, align 8, !tbaa !20
  %12 = tail call ptr @rb_check_typeddata(i64 noundef %2, ptr noundef nonnull @method_data_type) #21
  %13 = load i64, ptr %12, align 8, !tbaa !84
  %14 = icmp eq i64 %13, 36
  br i1 %14, label %15, label %17

15:                                               ; preds = %8
  %16 = load i64, ptr @rb_eTypeError, align 8, !tbaa !36
  tail call void (i64, ptr, ...) @rb_raise(i64 noundef %16, ptr noundef nonnull @.str.16) #22
  unreachable

17:                                               ; preds = %8
  %18 = getelementptr i8, ptr %12, i64 32
  %.val7.i.i = load ptr, ptr %18, align 8, !tbaa !74
  %19 = icmp eq i64 %9, 4
  %20 = select i1 %19, i64 0, i64 %9
  %21 = getelementptr inbounds nuw i8, ptr %11, i64 120
  store i64 %20, ptr %21, align 8, !tbaa !85
  %22 = getelementptr inbounds nuw i8, ptr %.val7.i.i, i64 8
  %23 = load i64, ptr %22, align 8, !tbaa !86
  %24 = icmp eq i64 %23, 0
  br i1 %24, label %25, label %rb_method_call_with_block.exit

25:                                               ; preds = %17
  tail call void (ptr, ...) @rb_bug(ptr noundef nonnull @.str.75) #23
  unreachable

rb_method_call_with_block.exit:                   ; preds = %17
  %26 = getelementptr inbounds nuw i8, ptr %.val7.i.i, i64 24
  %27 = load i64, ptr %26, align 8, !tbaa !87
  %28 = tail call i64 @rb_vm_call_kw(ptr noundef nonnull %11, i64 noundef %13, i64 noundef %27, i32 noundef %0, ptr noundef %1, ptr noundef nonnull %.val7.i.i, i32 noundef 0) #21
  ret i64 %28
}